; Function Attrs: mustprogress uwtable
define dso_local void @_ZN10ImDrawList22PathBezierCubicCurveToERK6ImVec2S2_S2_i(ptr noundef nonnull align 8 captures(none) dereferenceable(200) %0, ptr noundef nonnull readonly align 4 captures(none) dereferenceable(8) %1, ptr noundef nonnull readonly align 4 captures(none) dereferenceable(8) %2, ptr noundef nonnull readonly align 4 captures(none) dereferenceable(8) %3, i32 noundef %4) local_unnamed_addr #0 align 2 {
  %6 = getelementptr inbounds nuw i8, ptr %0, i64 80
  %7 = getelementptr inbounds nuw i8, ptr %0, i64 88
  %8 = load ptr, ptr %7, align 8, !tbaa !61
  %9 = load i32, ptr %6, align 8, !tbaa !62
  %10 = sext i32 %9 to i64
  %11 = getelementptr %struct.ImVec2, ptr %8, i64 %10
  %12 = getelementptr i8, ptr %11, i64 -8
  %13 = load float, ptr %12, align 4
  %.sroa_idx = getelementptr i8, ptr %11, i64 -4
  %14 = load float, ptr %.sroa_idx, align 4
  %15 = icmp eq i32 %4, 0
  br i1 %15, label %16, label %30

16:                                               ; preds = %5
  %17 = load float, ptr %1, align 4, !tbaa !93
  %18 = getelementptr inbounds nuw i8, ptr %1, i64 4
  %19 = load float, ptr %18, align 4, !tbaa !94
  %20 = load float, ptr %2, align 4, !tbaa !93
  %21 = getelementptr inbounds nuw i8, ptr %2, i64 4
  %22 = load float, ptr %21, align 4, !tbaa !94
  %23 = load float, ptr %3, align 4, !tbaa !93
  %24 = getelementptr inbounds nuw i8, ptr %3, i64 4
  %25 = load float, ptr %24, align 4, !tbaa !94
  %26 = getelementptr inbounds nuw i8, ptr %0, i64 56
  %27 = load ptr, ptr %26, align 8, !tbaa !50
  %28 = getelementptr inbounds nuw i8, ptr %27, i64 24
  %29 = load float, ptr %28, align 8, !tbaa !130
  tail call fastcc void @_ZL31PathBezierCubicCurveToCasteljauP8ImVectorI6ImVec2Efffffffffi(ptr noundef %6, float noundef %13, float noundef %14, float noundef %17, float noundef %19, float noundef %20, float noundef %22, float noundef %23, float noundef %25, float noundef %29, i32 noundef 0)
  br label %.loopexit

30:                                               ; preds = %5
  %31 = sitofp i32 %4 to float
  %32 = fdiv float 1.000000e+00, %31
  %.not21 = icmp slt i32 %4, 1
  br i1 %.not21, label %.loopexit, label %.lr.ph

.lr.ph:                                           ; preds = %30
  %33 = getelementptr inbounds nuw i8, ptr %1, i64 4
  %34 = getelementptr inbounds nuw i8, ptr %2, i64 4
  %35 = getelementptr inbounds nuw i8, ptr %3, i64 4
  %36 = getelementptr inbounds nuw i8, ptr %0, i64 84
  br label %37

37:                                               ; preds = %.lr.ph, %_ZN8ImVectorI6ImVec2E9push_backERKS0_.exit
  %38 = phi i32 [ %9, %.lr.ph ], [ %95, %_ZN8ImVectorI6ImVec2E9push_backERKS0_.exit ]
  %.022 = phi i32 [ 1, %.lr.ph ], [ %96, %_ZN8ImVectorI6ImVec2E9push_backERKS0_.exit ]
  %39 = uitofp nneg i32 %.022 to float
  %40 = fmul float %32, %39
  %41 = fsub float 1.000000e+00, %40
  %42 = fmul float %41, %41
  %43 = fmul float %41, %42
  %44 = fmul float %41, 3.000000e+00
  %45 = fmul float %41, %44
  %46 = fmul float %40, %45
  %47 = fmul float %40, %44
  %48 = fmul float %40, %47
  %49 = fmul float %40, %40
  %50 = fmul float %40, %49
  %51 = fmul float %13, %43
  %52 = load float, ptr %1, align 4, !tbaa !93
  %53 = fmul float %46, %52
  %54 = fadd float %51, %53
  %55 = load float, ptr %2, align 4, !tbaa !93
  %56 = fmul float %48, %55
  %57 = fadd float %54, %56
  %58 = load float, ptr %3, align 4, !tbaa !93
  %59 = fmul float %50, %58
  %60 = fadd float %57, %59
  %61 = fmul float %14, %43
  %62 = load float, ptr %33, align 4, !tbaa !94
  %63 = fmul float %46, %62
  %64 = fadd float %61, %63
  %65 = load float, ptr %34, align 4, !tbaa !94
  %66 = fmul float %48, %65
  %67 = fadd float %64, %66
  %68 = load float, ptr %35, align 4, !tbaa !94
  %69 = fmul float %50, %68
  %70 = fadd float %67, %69
  %.sroa.0.0.vec.insert.i = insertelement <2 x float> poison, float %60, i64 0
  %.sroa.0.4.vec.insert.i = insertelement <2 x float> %.sroa.0.0.vec.insert.i, float %70, i64 1
  %71 = load i32, ptr %36, align 4, !tbaa !60
  %72 = icmp eq i32 %38, %71
  br i1 %72, label %73, label %._ZN8ImVectorI6ImVec2E7reserveEi.exit_crit_edge.i

._ZN8ImVectorI6ImVec2E7reserveEi.exit_crit_edge.i: ; preds = %37
  %.pre.i = load ptr, ptr %7, align 8, !tbaa !61
  br label %_ZN8ImVectorI6ImVec2E9push_backERKS0_.exit

73:                                               ; preds = %37
  %74 = add nsw i32 %38, 1
  %.not.i.i = icmp eq i32 %38, 0
  br i1 %.not.i.i, label %_ZNK8ImVectorI6ImVec2E14_grow_capacityEi.exit.i, label %75

75:                                               ; preds = %73
  %76 = sdiv i32 %38, 2
  %77 = add nsw i32 %76, %38
  br label %_ZNK8ImVectorI6ImVec2E14_grow_capacityEi.exit.i

_ZNK8ImVectorI6ImVec2E14_grow_capacityEi.exit.i:  ; preds = %75, %73
  %78 = phi i32 [ %77, %75 ], [ 8, %73 ]
  %79 = tail call noundef i32 @llvm.smax.i32(i32 %78, i32 %74)
  %80 = sext i32 %79 to i64
  %81 = shl nsw i64 %80, 3
  %82 = tail call noundef ptr @_ZN5ImGui8MemAllocEm(i64 noundef %81)
  %83 = load ptr, ptr %7, align 8, !tbaa !61
  %.not6.i.i = icmp eq ptr %83, null
  br i1 %.not6.i.i, label %89, label %84

84:                                               ; preds = %_ZNK8ImVectorI6ImVec2E14_grow_capacityEi.exit.i
  %85 = load i32, ptr %6, align 8, !tbaa !62
  %86 = sext i32 %85 to i64
  %87 = shl nsw i64 %86, 3
  tail call void @llvm.memcpy.p0.p0.i64(ptr align 4 %82, ptr nonnull align 4 %83, i64 %87, i1 false)
  %88 = load ptr, ptr %7, align 8, !tbaa !61
  tail call void @_ZN5ImGui7MemFreeEPv(ptr noundef %88)
  br label %89

89:                                               ; preds = %84, %_ZNK8ImVectorI6ImVec2E14_grow_capacityEi.exit.i
  store ptr %82, ptr %7, align 8, !tbaa !61
  store i32 %79, ptr %36, align 4, !tbaa !60
  %.pre3.i = load i32, ptr %6, align 8, !tbaa !62
  br label %_ZN8ImVectorI6ImVec2E9push_backERKS0_.exit

_ZN8ImVectorI6ImVec2E9push_backERKS0_.exit:       ; preds = %._ZN8ImVectorI6ImVec2E7reserveEi.exit_crit_edge.i, %89
  %90 = phi i32 [ %38, %._ZN8ImVectorI6ImVec2E7reserveEi.exit_crit_edge.i ], [ %.pre3.i, %89 ]
  %91 = phi ptr [ %.pre.i, %._ZN8ImVectorI6ImVec2E7reserveEi.exit_crit_edge.i ], [ %82, %89 ]
  %92 = sext i32 %90 to i64
  %93 = getelementptr inbounds %struct.ImVec2, ptr %91, i64 %92
  store <2 x float> %.sroa.0.4.vec.insert.i, ptr %93, align 4
  %94 = load i32, ptr %6, align 8, !tbaa !62
  %95 = add nsw i32 %94, 1
  store i32 %95, ptr %6, align 8, !tbaa !62
  %96 = add nuw i32 %.022, 1
  %exitcond.not = icmp eq i32 %.022, %4
  br i1 %exitcond.not, label %.loopexit, label %37, !llvm.loop !131

.loopexit:                                        ; preds = %_ZN8ImVectorI6ImVec2E9push_backERKS0_.exit, %30, %16
  ret void
}